target datalayout = "e-m:e-p270:32:32-p271:32:32-p272:64:64-i64:64-f80:128-n8:16:32:64-S128"
target triple = "x86_64-pc-linux-gnu"

@.str = private unnamed_addr constant [6 x i8] c"%s %s\00", align 1
@.str.1 = private unnamed_addr constant [3 x i8] c"NO\00", align 1
@.str.2 = private unnamed_addr constant [4 x i8] c"YES\00", align 1

; Function Attrs: noinline nounwind uwtable
define dso_local i32 @main() #0 {
  %1 = alloca i32, align 4
  %2 = alloca [123 x i32], align 16
  %3 = alloca [123 x i32], align 16
  %4 = alloca [100 x i8], align 16
  %5 = alloca [100 x i8], align 16
  %6 = alloca i32, align 4
  %7 = alloca i32, align 4
  store i32 0, i32* %1, align 4
  %8 = bitcast [123 x i32]* %2 to i8*
  call void @llvm.memset.p0i8.i64(i8* align 16 %8, i8 0, i64 492, i1 false)
  %9 = bitcast [123 x i32]* %3 to i8*
  call void @llvm.memset.p0i8.i64(i8* align 16 %9, i8 0, i64 492, i1 false)
  %10 = bitcast [100 x i8]* %4 to i8*
  call void @llvm.memset.p0i8.i64(i8* align 16 %10, i8 0, i64 100, i1 false)
  %11 = bitcast [100 x i8]* %5 to i8*
  call void @llvm.memset.p0i8.i64(i8* align 16 %11, i8 0, i64 100, i1 false)
  %12 = getelementptr inbounds [100 x i8], [100 x i8]* %4, i64 0, i64 0
  %13 = getelementptr inbounds [100 x i8], [100 x i8]* %5, i64 0, i64 0
  %14 = call i32 (i8*, ...) @__isoc99_scanf(i8* getelementptr inbounds ([6 x i8], [6 x i8]* @.str, i64 0, i64 0), i8* %12, i8* %13)
  store i32 0, i32* %6, align 4
  store i32 1, i32* %7, align 4
  %15 = getelementptr inbounds [100 x i8], [100 x i8]* %4, i64 0, i64 0
  %16 = call i64 @strlen(i8* %15) #4
  %17 = getelementptr inbounds [100 x i8], [100 x i8]* %5, i64 0, i64 0
  %18 = call i64 @strlen(i8* %17) #4
  %19 = icmp ne i64 %16, %18
  br i1 %19, label %20, label %21

20:                                               ; preds = %0
  store i32 0, i32* %7, align 4
  br label %100

21:                                               ; preds = %0
  br label %22

22:                                               ; preds = %30, %21
  %23 = getelementptr inbounds [100 x i8], [100 x i8]* %4, i64 0, i64 0
  %24 = load i32, i32* %6, align 4
  %25 = sext i32 %24 to i64
  %26 = getelementptr inbounds i8, i8* %23, i64 %25
  %27 = load i8, i8* %26, align 1
  %28 = sext i8 %27 to i32
  %29 = icmp ne i32 %28, 0
  br i1 %29, label %30, label %55

30:                                               ; preds = %22
  %31 = getelementptr inbounds [123 x i32], [123 x i32]* %2, i64 0, i64 0
  %32 = getelementptr inbounds [100 x i8], [100 x i8]* %4, i64 0, i64 0
  %33 = load i32, i32* %6, align 4
  %34 = sext i32 %33 to i64
  %35 = getelementptr inbounds i8, i8* %32, i64 %34
  %36 = load i8, i8* %35, align 1
  %37 = sext i8 %36 to i32
  %38 = sext i32 %37 to i64
  %39 = getelementptr inbounds i32, i32* %31, i64 %38
  %40 = load i32, i32* %39, align 4
  %41 = add nsw i32 %40, 1
  store i32 %41, i32* %39, align 4
  %42 = getelementptr inbounds [123 x i32], [123 x i32]* %3, i64 0, i64 0
  %43 = getelementptr inbounds [100 x i8], [100 x i8]* %5, i64 0, i64 0
  %44 = load i32, i32* %6, align 4
  %45 = sext i32 %44 to i64
  %46 = getelementptr inbounds i8, i8* %43, i64 %45
  %47 = load i8, i8* %46, align 1
  %48 = sext i8 %47 to i32
  %49 = sext i32 %48 to i64
  %50 = getelementptr inbounds i32, i32* %42, i64 %49
  %51 = load i32, i32* %50, align 4
  %52 = add nsw i32 %51, 1
  store i32 %52, i32* %50, align 4
  %53 = load i32, i32* %6, align 4
  %54 = add nsw i32 %53, 1
  store i32 %54, i32* %6, align 4
  br label %22

55:                                               ; preds = %22
  store i32 65, i32* %6, align 4
  br label %56

56:                                               ; preds = %74, %55
  %57 = load i32, i32* %6, align 4
  %58 = icmp sle i32 %57, 90
  br i1 %58, label %59, label %77

59:                                               ; preds = %56
  %60 = load i32, i32* %7, align 4
  %61 = getelementptr inbounds [123 x i32], [123 x i32]* %2, i64 0, i64 0
  %62 = load i32, i32* %6, align 4
  %63 = sext i32 %62 to i64
  %64 = getelementptr inbounds i32, i32* %61, i64 %63
  %65 = load i32, i32* %64, align 4
  %66 = getelementptr inbounds [123 x i32], [123 x i32]* %3, i64 0, i64 0
  %67 = load i32, i32* %6, align 4
  %68 = sext i32 %67 to i64
  %69 = getelementptr inbounds i32, i32* %66, i64 %68
  %70 = load i32, i32* %69, align 4
  %71 = icmp eq i32 %65, %70
  %72 = zext i1 %71 to i32
  %73 = mul nsw i32 %60, %72
  store i32 %73, i32* %7, align 4
  br label %74

74:                                               ; preds = %59
  %75 = load i32, i32* %6, align 4
  %76 = add nsw i32 %75, 1
  store i32 %76, i32* %6, align 4
  br label %56

77:                                               ; preds = %56
  store i32 97, i32* %6, align 4
  br label %78

78:                                               ; preds = %96, %77
  %79 = load i32, i32* %6, align 4
  %80 = icmp sle i32 %79, 122
  br i1 %80, label %81, label %99

81:                                               ; preds = %78
  %82 = load i32, i32* %7, align 4
  %83 = getelementptr inbounds [123 x i32], [123 x i32]* %2, i64 0, i64 0
  %84 = load i32, i32* %6, align 4
  %85 = sext i32 %84 to i64
  %86 = getelementptr inbounds i32, i32* %83, i64 %85
  %87 = load i32, i32* %86, align 4
  %88 = getelementptr inbounds [123 x i32], [123 x i32]* %3, i64 0, i64 0
  %89 = load i32, i32* %6, align 4
  %90 = sext i32 %89 to i64
  %91 = getelementptr inbounds i32, i32* %88, i64 %90
  %92 = load i32, i32* %91, align 4
  %93 = icmp eq i32 %87, %92
  %94 = zext i1 %93 to i32
  %95 = mul nsw i32 %82, %94
  store i32 %95, i32* %7, align 4
  br label %96

96:                                               ; preds = %81
  %97 = load i32, i32* %6, align 4
  %98 = add nsw i32 %97, 1
  store i32 %98, i32* %6, align 4
  br label %78

99:                                               ; preds = %78
  br label %100

100:                                              ; preds = %99, %20
  %101 = load i32, i32* %7, align 4
  %102 = icmp eq i32 %101, 0
  br i1 %102, label %103, label %105

103:                                              ; preds = %100
  %104 = call i32 (i8*, ...) @printf(i8* getelementptr inbounds ([3 x i8], [3 x i8]* @.str.1, i64 0, i64 0))
  br label %107

105:                                              ; preds = %100
  %106 = call i32 (i8*, ...) @printf(i8* getelementptr inbounds ([4 x i8], [4 x i8]* @.str.2, i64 0, i64 0))
  br label %107

107:                                              ; preds = %105, %103
  ret i32 0
}